target datalayout = "e-m:e-p270:32:32-p271:32:32-p272:64:64-i64:64-i128:128-f80:128-n8:16:32:64-S128"
target triple = "x86_64-pc-linux-gnu"

%struct._typeobject = type { %struct.PyVarObject, ptr, i64, i64, ptr, i64, ptr, ptr, ptr, ptr, ptr, ptr, ptr, ptr, ptr, ptr, ptr, ptr, ptr, i64, ptr, ptr, ptr, ptr, i64, ptr, ptr, ptr, ptr, ptr, ptr, ptr, ptr, ptr, i64, ptr, ptr, ptr, ptr, ptr, ptr, ptr, ptr, ptr, ptr, ptr, i32, ptr, ptr, i8, i16 }
%struct.PyVarObject = type { %struct._object, i64 }
%struct._object = type { %union.anon, ptr }
%union.anon = type { i64 }

@.str.27 = private unnamed_addr constant [4 x i8] c"str\00", align 1
@.str.67 = private unnamed_addr constant [7 x i8] c"format\00", align 1
@.str.143 = private unnamed_addr constant [11 x i8] c"argument 2\00", align 1

; Function Attrs: nounwind uwtable
define internal ptr @builtin_format_impl(ptr noundef %0, ptr noundef %1, ptr noundef %2) #0 {
  %4 = alloca ptr, align 8
  %5 = alloca ptr, align 8
  %6 = alloca ptr, align 8
  store ptr %0, ptr %4, align 8, !tbaa !4
  store ptr %1, ptr %5, align 8, !tbaa !4
  store ptr %2, ptr %6, align 8, !tbaa !4
  %7 = load ptr, ptr %5, align 8, !tbaa !4
  %8 = load ptr, ptr %6, align 8, !tbaa !4
  %9 = call ptr @PyObject_Format(ptr noundef %7, ptr noundef %8)
  ret ptr %9
}

; Function Attrs: inlinehint nounwind uwtable
define internal i32 @PyType_HasFeature(ptr noundef %0, i64 noundef %1) #4 {
  %3 = alloca ptr, align 8
  %4 = alloca i64, align 8
  %5 = alloca i64, align 8
  store ptr %0, ptr %3, align 8, !tbaa !41
  store i64 %1, ptr %4, align 8, !tbaa !40
  call void @llvm.lifetime.start.p0(i64 8, ptr %5) #9
  %6 = load ptr, ptr %3, align 8, !tbaa !41
  %7 = getelementptr inbounds nuw %struct._typeobject, ptr %6, i32 0, i32 19
  %8 = load i64, ptr %7, align 8, !tbaa !78
  store i64 %8, ptr %5, align 8, !tbaa !40
  %9 = load i64, ptr %5, align 8, !tbaa !40
  %10 = load i64, ptr %4, align 8, !tbaa !40
  %11 = and i64 %9, %10
  %12 = icmp ne i64 %11, 0
  %13 = zext i1 %12 to i32
  call void @llvm.lifetime.end.p0(i64 8, ptr %5) #9
  ret i32 %13
}

; Function Attrs: inlinehint nounwind uwtable
define internal ptr @_Py_TYPE(ptr noundef %0) #4 {
  %2 = alloca ptr, align 8
  store ptr %0, ptr %2, align 8, !tbaa !4
  %3 = load ptr, ptr %2, align 8, !tbaa !4
  %4 = getelementptr inbounds nuw %struct._object, ptr %3, i32 0, i32 1
  %5 = load ptr, ptr %4, align 8, !tbaa !75
  ret ptr %5
}

; Function Attrs: nounwind uwtable
define internal ptr @builtin_format(ptr noundef %0, ptr noundef %1, i64 noundef %2) #0 {
  %4 = alloca ptr, align 8
  %5 = alloca ptr, align 8
  %6 = alloca i64, align 8
  %7 = alloca ptr, align 8
  %8 = alloca ptr, align 8
  %9 = alloca ptr, align 8
  store ptr %0, ptr %4, align 8, !tbaa !4
  store ptr %1, ptr %5, align 8, !tbaa !44
  store i64 %2, ptr %6, align 8, !tbaa !40
  call void @llvm.lifetime.start.p0(i64 8, ptr %7) #9
  store ptr null, ptr %7, align 8, !tbaa !4
  call void @llvm.lifetime.start.p0(i64 8, ptr %8) #9
  call void @llvm.lifetime.start.p0(i64 8, ptr %9) #9
  store ptr null, ptr %9, align 8, !tbaa !4
  %10 = load i64, ptr %6, align 8, !tbaa !40
  %11 = icmp sle i64 1, %10
  br i1 %11, label %12, label %15

12:                                               ; preds = %3
  %13 = load i64, ptr %6, align 8, !tbaa !40
  %14 = icmp sle i64 %13, 2
  br i1 %14, label %20, label %15

15:                                               ; preds = %12, %3
  %16 = load i64, ptr %6, align 8, !tbaa !40
  %17 = call i32 @_PyArg_CheckPositional(ptr noundef @.str.67, i64 noundef %16, i64 noundef 1, i64 noundef 2)
  %18 = icmp ne i32 %17, 0
  br i1 %18, label %20, label %19

19:                                               ; preds = %15
  br label %47

20:                                               ; preds = %15, %12
  %21 = load ptr, ptr %5, align 8, !tbaa !44
  %22 = getelementptr ptr, ptr %21, i64 0
  %23 = load ptr, ptr %22, align 8, !tbaa !4
  store ptr %23, ptr %8, align 8, !tbaa !4
  %24 = load i64, ptr %6, align 8, !tbaa !40
  %25 = icmp slt i64 %24, 2
  br i1 %25, label %26, label %27

26:                                               ; preds = %20
  br label %42

27:                                               ; preds = %20
  %28 = load ptr, ptr %5, align 8, !tbaa !44
  %29 = getelementptr ptr, ptr %28, i64 1
  %30 = load ptr, ptr %29, align 8, !tbaa !4
  %31 = call ptr @_Py_TYPE(ptr noundef %30)
  %32 = call i32 @PyType_HasFeature(ptr noundef %31, i64 noundef 268435456)
  %33 = icmp ne i32 %32, 0
  br i1 %33, label %38, label %34

34:                                               ; preds = %27
  %35 = load ptr, ptr %5, align 8, !tbaa !44
  %36 = getelementptr ptr, ptr %35, i64 1
  %37 = load ptr, ptr %36, align 8, !tbaa !4
  call void @_PyArg_BadArgument(ptr noundef @.str.67, ptr noundef @.str.143, ptr noundef @.str.27, ptr noundef %37)
  br label %47

38:                                               ; preds = %27
  %39 = load ptr, ptr %5, align 8, !tbaa !44
  %40 = getelementptr ptr, ptr %39, i64 1
  %41 = load ptr, ptr %40, align 8, !tbaa !4
  store ptr %41, ptr %9, align 8, !tbaa !4
  br label %42

42:                                               ; preds = %38, %26
  %43 = load ptr, ptr %4, align 8, !tbaa !4
  %44 = load ptr, ptr %8, align 8, !tbaa !4
  %45 = load ptr, ptr %9, align 8, !tbaa !4
  %46 = call ptr @builtin_format_impl(ptr noundef %43, ptr noundef %44, ptr noundef %45)
  store ptr %46, ptr %7, align 8, !tbaa !4
  br label %47

47:                                               ; preds = %42, %34, %19
  %48 = load ptr, ptr %7, align 8, !tbaa !4
  call void @llvm.lifetime.end.p0(i64 8, ptr %9) #9
  call void @llvm.lifetime.end.p0(i64 8, ptr %8) #9
  call void @llvm.lifetime.end.p0(i64 8, ptr %7) #9
  ret ptr %48
}