; Function Attrs: nounwind uwtable
define internal ptr @builtin_format(ptr readnone captures(none) %0, ptr noundef readonly captures(none) %1, i64 noundef %2) #0 {
  %4 = add i64 %2, -1
  %or.cond = icmp ult i64 %4, 2
  br i1 %or.cond, label %7, label %5

5:                                                ; preds = %3
  %6 = tail call i32 @_PyArg_CheckPositional(ptr noundef nonnull @.str.67, i64 noundef %2, i64 noundef 1, i64 noundef 2) #9
  %.not = icmp eq i32 %6, 0
  br i1 %.not, label %19, label %7

7:                                                ; preds = %3, %5
  %8 = load ptr, ptr %1, align 8, !tbaa !39
  %9 = icmp slt i64 %2, 2
  br i1 %9, label %17, label %10

10:                                               ; preds = %7
  %11 = getelementptr i8, ptr %1, i64 8
  %12 = load ptr, ptr %11, align 8, !tbaa !39
  %13 = getelementptr i8, ptr %12, i64 8
  %.val = load ptr, ptr %13, align 8, !tbaa !20
  %14 = getelementptr i8, ptr %.val, i64 168
  %.val14 = load i64, ptr %14, align 8, !tbaa !49
  %15 = and i64 %.val14, 268435456
  %.not13 = icmp eq i64 %15, 0
  br i1 %.not13, label %16, label %17

16:                                               ; preds = %10
  tail call void @_PyArg_BadArgument(ptr noundef nonnull @.str.67, ptr noundef nonnull @.str.143, ptr noundef nonnull @.str.27, ptr noundef nonnull %12) #9
  br label %19

17:                                               ; preds = %10, %7
  %.0 = phi ptr [ null, %7 ], [ %12, %10 ]
  %18 = tail call ptr @PyObject_Format(ptr noundef %8, ptr noundef %.0) #9
  br label %19

19:                                               ; preds = %5, %17, %16
  %.012 = phi ptr [ %18, %17 ], [ null, %16 ], [ null, %5 ]
  ret ptr %.012
}